; Function Attrs: nofree norecurse nosync nounwind memory(read, argmem: readwrite, inaccessiblemem: none) uwtable
define dso_local range(i32 -1, 1) i32 @normalize_path_copy(ptr noundef %0, ptr noundef readonly %1) local_unnamed_addr #16 {
  %.val.i = load i8, ptr %1, align 1, !tbaa !14
  %3 = icmp eq i8 %.val.i, 47
  %4 = zext i1 %3 to i64
  %5 = getelementptr inbounds nuw i8, ptr %1, i64 %4
  br i1 %3, label %.lr.ph.i, label %.preheader110.i

.preheader110.i:                                  ; preds = %.lr.ph.i, %2
  %.060.lcssa.i = phi ptr [ %1, %2 ], [ %6, %.lr.ph.i ]
  %.057.lcssa.i = phi ptr [ %0, %2 ], [ %8, %.lr.ph.i ]
  br label %10

.lr.ph.i:                                         ; preds = %2, %.lr.ph.i
  %.057116.i = phi ptr [ %8, %.lr.ph.i ], [ %0, %2 ]
  %.060115.i = phi ptr [ %6, %.lr.ph.i ], [ %1, %2 ]
  %6 = getelementptr inbounds nuw i8, ptr %.060115.i, i64 1
  %7 = load i8, ptr %.060115.i, align 1, !tbaa !14
  %8 = getelementptr inbounds nuw i8, ptr %.057116.i, i64 1
  store i8 %7, ptr %.057116.i, align 1, !tbaa !14
  %9 = icmp ult ptr %6, %5
  br i1 %9, label %.lr.ph.i, label %.preheader110.i, !llvm.loop !88

10:                                               ; preds = %10, %.preheader110.i
  %.161.i = phi ptr [ %12, %10 ], [ %.060.lcssa.i, %.preheader110.i ]
  %11 = load i8, ptr %.161.i, align 1, !tbaa !14
  %.not.i = icmp eq i8 %11, 47
  %12 = getelementptr inbounds nuw i8, ptr %.161.i, i64 1
  br i1 %.not.i, label %10, label %.preheader109.split.us.i.outer, !llvm.loop !89

.preheader109.split.us.i.outer:                   ; preds = %10, %.preheader109.split.us.i.outer.backedge
  %.ph = phi i8 [ %.ph.be, %.preheader109.split.us.i.outer.backedge ], [ %11, %10 ]
  %.262.us.i.ph = phi ptr [ %.262.us.i.ph.be, %.preheader109.split.us.i.outer.backedge ], [ %.161.i, %10 ]
  %.158.us.i.ph = phi ptr [ %.158.us.i.ph.be, %.preheader109.split.us.i.outer.backedge ], [ %.057.lcssa.i, %10 ]
  br label %.preheader109.split.us.i

.preheader109.split.us.i:                         ; preds = %33, %.preheader109.split.us.i.outer
  %13 = phi i8 [ %.ph, %.preheader109.split.us.i.outer ], [ %34, %33 ]
  %.262.us.i = phi ptr [ %.262.us.i.ph, %.preheader109.split.us.i.outer ], [ %.464.us.i, %33 ]
  %14 = icmp eq i8 %13, 46
  br i1 %14, label %15, label %.preheader

15:                                               ; preds = %.preheader109.split.us.i
  %16 = getelementptr inbounds nuw i8, ptr %.262.us.i, i64 1
  %17 = load i8, ptr %16, align 1, !tbaa !14
  switch i8 %17, label %.preheader [
    i8 0, label %.preheader.loopexit.split.loop.exit63
    i8 47, label %31
    i8 46, label %18
  ]

18:                                               ; preds = %15
  %19 = getelementptr inbounds nuw i8, ptr %.262.us.i, i64 2
  %20 = load i8, ptr %19, align 1, !tbaa !14
  switch i8 %20, label %.preheader [
    i8 0, label %.loopexit.us.i
    i8 47, label %21
  ]

21:                                               ; preds = %18
  %22 = getelementptr inbounds nuw i8, ptr %.262.us.i, i64 3
  br label %23

23:                                               ; preds = %23, %21
  %.7.us.i = phi ptr [ %22, %21 ], [ %25, %23 ]
  %24 = load i8, ptr %.7.us.i, align 1, !tbaa !14
  %.not105.us.i = icmp eq i8 %24, 47
  %25 = getelementptr inbounds nuw i8, ptr %.7.us.i, i64 1
  br i1 %.not105.us.i, label %23, label %.loopexit.us.i, !llvm.loop !90

.loopexit.us.i:                                   ; preds = %23, %18
  %.pr.us138.i = phi i8 [ %20, %18 ], [ %24, %23 ]
  %.6.us.i = phi ptr [ %19, %18 ], [ %.7.us.i, %23 ]
  %26 = getelementptr inbounds i8, ptr %.158.us.i.ph, i64 -1
  %.not84.us.i = icmp ugt ptr %26, %.057.lcssa.i
  br i1 %.not84.us.i, label %.preheader.us.i, label %normalize_path_copy_len.exit

.preheader.us.i:                                  ; preds = %.loopexit.us.i, %28
  %.5.us.i = phi ptr [ %29, %28 ], [ %26, %.loopexit.us.i ]
  %27 = icmp ult ptr %.057.lcssa.i, %.5.us.i
  br i1 %27, label %28, label %.preheader109.split.us.i.outer.backedge

28:                                               ; preds = %.preheader.us.i
  %29 = getelementptr inbounds i8, ptr %.5.us.i, i64 -1
  %30 = load i8, ptr %29, align 1, !tbaa !14
  %.not85.us.i = icmp eq i8 %30, 47
  br i1 %.not85.us.i, label %.preheader109.split.us.i.outer.backedge, label %.preheader.us.i, !llvm.loop !91

31:                                               ; preds = %15
  %32 = getelementptr inbounds nuw i8, ptr %.262.us.i, i64 2
  br label %33

33:                                               ; preds = %33, %31
  %.464.us.i = phi ptr [ %32, %31 ], [ %35, %33 ]
  %34 = load i8, ptr %.464.us.i, align 1, !tbaa !14
  %.not103.us.i = icmp eq i8 %34, 47
  %35 = getelementptr inbounds nuw i8, ptr %.464.us.i, i64 1
  br i1 %.not103.us.i, label %33, label %.preheader109.split.us.i, !llvm.loop !92

.preheader.loopexit.split.loop.exit63:            ; preds = %15
  %36 = getelementptr inbounds nuw i8, ptr %.262.us.i, i64 1
  br label %.preheader

.preheader:                                       ; preds = %.preheader.loopexit.split.loop.exit63, %.preheader109.split.us.i, %15, %18
  %.8.us.i.ph = phi ptr [ %.262.us.i, %18 ], [ %.262.us.i, %15 ], [ %36, %.preheader.loopexit.split.loop.exit63 ], [ %.262.us.i, %.preheader109.split.us.i ]
  br label %37

37:                                               ; preds = %.preheader, %43
  %.8.us.i = phi ptr [ %38, %43 ], [ %.8.us.i.ph, %.preheader ]
  %.3.us.i = phi ptr [ %44, %43 ], [ %.158.us.i.ph, %.preheader ]
  %38 = getelementptr inbounds nuw i8, ptr %.8.us.i, i64 1
  %39 = load i8, ptr %.8.us.i, align 1, !tbaa !14
  switch i8 %39, label %43 [
    i8 0, label %.split.us.i
    i8 47, label %.lr.ph120.us.preheader.i
  ]

.lr.ph120.us.preheader.i:                         ; preds = %37
  store i8 47, ptr %.3.us.i, align 1, !tbaa !14
  br label %.lr.ph120.us.i

thread-pre-split.us.i.loopexit:                   ; preds = %.lr.ph120.us.i
  %40 = getelementptr inbounds nuw i8, ptr %.3.us.i, i64 1
  br label %.preheader109.split.us.i.outer.backedge

.preheader109.split.us.i.outer.backedge:          ; preds = %.preheader.us.i, %28, %thread-pre-split.us.i.loopexit
  %.ph.be = phi i8 [ %42, %thread-pre-split.us.i.loopexit ], [ %.pr.us138.i, %28 ], [ %.pr.us138.i, %.preheader.us.i ]
  %.262.us.i.ph.be = phi ptr [ %.9119.us.i, %thread-pre-split.us.i.loopexit ], [ %.6.us.i, %28 ], [ %.6.us.i, %.preheader.us.i ]
  %.158.us.i.ph.be = phi ptr [ %40, %thread-pre-split.us.i.loopexit ], [ %.5.us.i, %28 ], [ %.5.us.i, %.preheader.us.i ]
  br label %.preheader109.split.us.i.outer

.lr.ph120.us.i:                                   ; preds = %.lr.ph120.us.i, %.lr.ph120.us.preheader.i
  %.9119.us.i = phi ptr [ %41, %.lr.ph120.us.i ], [ %38, %.lr.ph120.us.preheader.i ]
  %41 = getelementptr inbounds nuw i8, ptr %.9119.us.i, i64 1
  %42 = load i8, ptr %.9119.us.i, align 1, !tbaa !14
  %.not107.us.i = icmp eq i8 %42, 47
  br i1 %.not107.us.i, label %.lr.ph120.us.i, label %thread-pre-split.us.i.loopexit, !llvm.loop !93

43:                                               ; preds = %37
  %44 = getelementptr inbounds nuw i8, ptr %.3.us.i, i64 1
  store i8 %39, ptr %.3.us.i, align 1, !tbaa !14
  br label %37, !llvm.loop !94

.split.us.i:                                      ; preds = %37
  store i8 0, ptr %.3.us.i, align 1, !tbaa !14
  br label %normalize_path_copy_len.exit

normalize_path_copy_len.exit:                     ; preds = %.loopexit.us.i, %.split.us.i
  %.2.i = phi i32 [ 0, %.split.us.i ], [ -1, %.loopexit.us.i ]
  ret i32 %.2.i
}